; ModuleID = 'source-C-CXX/57/9.c'
source_filename = "source-C-CXX/57/9.c"
target datalayout = "e-m:e-p270:32:32-p271:32:32-p272:64:64-i64:64-f80:128-n8:16:32:64-S128"
target triple = "x86_64-pc-linux-gnu"

@.str = private unnamed_addr constant [4 x i8] c"%d\0A\00", align 1

; Function Attrs: nounwind sspstrong uwtable
define dso_local i32 @main() local_unnamed_addr #0 {
  %1 = alloca i32, align 4
  %2 = alloca [100 x [100 x i8]], align 16
  %3 = bitcast i32* %1 to i8*
  call void @llvm.lifetime.start.p0i8(i64 4, i8* nonnull %3) #5
  %4 = getelementptr inbounds [100 x [100 x i8]], [100 x [100 x i8]]* %2, i64 0, i64 0, i64 0
  call void @llvm.lifetime.start.p0i8(i64 10000, i8* nonnull %4) #5
  %5 = call i32 (i8*, ...) @__isoc99_scanf(i8* getelementptr inbounds ([4 x i8], [4 x i8]* @.str, i64 0, i64 0), i32* nonnull %1)
  %6 = load i32, i32* %1, align 4, !tbaa !5
  %7 = icmp sgt i32 %6, 0
  br i1 %7, label %10, label %56

8:                                                ; preds = %10
  %9 = icmp sgt i32 %15, 0
  br i1 %9, label %18, label %56

10:                                               ; preds = %0, %10
  %11 = phi i64 [ %14, %10 ], [ 0, %0 ]
  %12 = getelementptr inbounds [100 x [100 x i8]], [100 x [100 x i8]]* %2, i64 0, i64 %11, i64 0
  %13 = call i32 (i8*, ...) bitcast (i32 (...)* @gets to i32 (i8*, ...)*)(i8* nonnull %12) #5
  %14 = add nuw nsw i64 %11, 1
  %15 = load i32, i32* %1, align 4, !tbaa !5
  %16 = sext i32 %15 to i64
  %17 = icmp slt i64 %14, %16
  br i1 %17, label %10, label %8, !llvm.loop !9

18:                                               ; preds = %8, %48
  %19 = phi i64 [ %52, %48 ], [ 0, %8 ]
  %20 = getelementptr inbounds [100 x [100 x i8]], [100 x [100 x i8]]* %2, i64 0, i64 %19, i64 0
  %21 = load i8, i8* %20, align 4, !tbaa !11
  %22 = icmp eq i8 %21, 95
  %23 = and i8 %21, -33
  %24 = add i8 %23, -65
  %25 = icmp ult i8 %24, 26
  %26 = or i1 %22, %25
  %27 = getelementptr inbounds [100 x [100 x i8]], [100 x [100 x i8]]* %2, i64 0, i64 %19, i64 1
  %28 = load i8, i8* %27, align 1, !tbaa !11
  %29 = icmp eq i8 %28, 0
  br i1 %29, label %48, label %30

30:                                               ; preds = %18, %43
  %31 = phi i64 [ %44, %43 ], [ 1, %18 ]
  %32 = phi i8 [ %46, %43 ], [ %28, %18 ]
  %33 = add i8 %32, -48
  %34 = icmp ult i8 %33, 10
  %35 = add i8 %32, -65
  %36 = icmp ult i8 %35, 26
  %37 = or i1 %34, %36
  br i1 %37, label %43, label %38

38:                                               ; preds = %30
  %39 = add i8 %32, -97
  %40 = icmp ult i8 %39, 26
  %41 = icmp eq i8 %32, 95
  %42 = or i1 %41, %40
  br i1 %42, label %43, label %48

43:                                               ; preds = %38, %30
  %44 = add nuw i64 %31, 1
  %45 = getelementptr inbounds [100 x [100 x i8]], [100 x [100 x i8]]* %2, i64 0, i64 %19, i64 %44
  %46 = load i8, i8* %45, align 1, !tbaa !11
  %47 = icmp eq i8 %46, 0
  br i1 %47, label %48, label %30, !llvm.loop !12

48:                                               ; preds = %38, %43, %18
  %49 = phi i1 [ %26, %18 ], [ %26, %43 ], [ false, %38 ]
  %50 = zext i1 %49 to i32
  %51 = call i32 (i8*, ...) @printf(i8* nonnull dereferenceable(1) getelementptr inbounds ([4 x i8], [4 x i8]* @.str, i64 0, i64 0), i32 %50)
  %52 = add nuw nsw i64 %19, 1
  %53 = load i32, i32* %1, align 4, !tbaa !5
  %54 = sext i32 %53 to i64
  %55 = icmp slt i64 %52, %54
  br i1 %55, label %18, label %56, !llvm.loop !13

56:                                               ; preds = %48, %0, %8
  call void @llvm.lifetime.end.p0i8(i64 10000, i8* nonnull %4) #5
  call void @llvm.lifetime.end.p0i8(i64 4, i8* nonnull %3) #5
  ret i32 0
}

; Function Attrs: argmemonly mustprogress nofree nosync nounwind willreturn
declare void @llvm.lifetime.start.p0i8(i64 immarg, i8* nocapture) #1

; Function Attrs: nofree nounwind
declare noundef i32 @__isoc99_scanf(i8* nocapture noundef readonly, ...) local_unnamed_addr #2

declare i32 @gets(...) local_unnamed_addr #3

; Function Attrs: nofree norecurse nosync nounwind readonly sspstrong uwtable
define dso_local i32 @f(i8* nocapture readonly %0) local_unnamed_addr #4 {
  %2 = load i8, i8* %0, align 1, !tbaa !11
  %3 = icmp eq i8 %2, 95
  %4 = and i8 %2, -33
  %5 = add i8 %4, -65
  %6 = icmp ult i8 %5, 26
  %7 = or i1 %6, %3
  %8 = getelementptr inbounds i8, i8* %0, i64 1
  %9 = load i8, i8* %8, align 1, !tbaa !11
  %10 = icmp eq i8 %9, 0
  br i1 %10, label %29, label %11

11:                                               ; preds = %1, %24
  %12 = phi i64 [ %25, %24 ], [ 1, %1 ]
  %13 = phi i8 [ %27, %24 ], [ %9, %1 ]
  %14 = add i8 %13, -48
  %15 = icmp ult i8 %14, 10
  %16 = add i8 %13, -65
  %17 = icmp ult i8 %16, 26
  %18 = or i1 %15, %17
  br i1 %18, label %24, label %19

19:                                               ; preds = %11
  %20 = add i8 %13, -97
  %21 = icmp ult i8 %20, 26
  %22 = icmp eq i8 %13, 95
  %23 = or i1 %22, %21
  br i1 %23, label %24, label %29

24:                                               ; preds = %19, %11
  %25 = add nuw i64 %12, 1
  %26 = getelementptr inbounds i8, i8* %0, i64 %25
  %27 = load i8, i8* %26, align 1, !tbaa !11
  %28 = icmp eq i8 %27, 0
  br i1 %28, label %29, label %11, !llvm.loop !12

29:                                               ; preds = %24, %19, %1
  %30 = phi i1 [ %7, %1 ], [ false, %19 ], [ %7, %24 ]
  %31 = zext i1 %30 to i32
  ret i32 %31
}

; Function Attrs: nofree nounwind
declare noundef i32 @printf(i8* nocapture noundef readonly, ...) local_unnamed_addr #2

; Function Attrs: argmemonly mustprogress nofree nosync nounwind willreturn
declare void @llvm.lifetime.end.p0i8(i64 immarg, i8* nocapture) #1


!llvm.module.flags = !{!0, !1, !2, !3}
!llvm.ident = !{!4}

!0 = !{i32 1, !"wchar_size", i32 4}
!1 = !{i32 7, !"PIC Level", i32 2}
!2 = !{i32 7, !"PIE Level", i32 2}
!3 = !{i32 7, !"uwtable", i32 1}
!4 = !{!"clang version 13.0.0"}
!5 = !{!6, !6, i64 0}
!6 = !{!"int", !7, i64 0}
!7 = !{!"omnipotent char", !8, i64 0}
!8 = !{!"Simple C/C++ TBAA"}
!9 = distinct !{!9, !10}
!10 = !{!"llvm.loop.mustprogress"}
!11 = !{!7, !7, i64 0}
!12 = distinct !{!12, !10}
!13 = distinct !{!13, !10}
